; Function Attrs: mustprogress uwtable
define noundef zeroext i1 @_ZNK2cv21GraphicalCodeDetector11detectMultiERKNS_11_InputArrayERKNS_12_OutputArrayE(ptr noundef nonnull readonly align 8 captures(none) dereferenceable(16) %0, ptr noundef nonnull align 8 dereferenceable(24) %1, ptr noundef nonnull align 8 dereferenceable(24) %2) local_unnamed_addr #1 align 2 personality ptr @__gxx_personality_v0 {
  %4 = alloca %"class.std::__cxx11::basic_string", align 8
  %5 = alloca %"class.std::allocator", align 1
  %6 = load ptr, ptr %0, align 8, !tbaa !3
  %.not = icmp eq ptr %6, null
  br i1 %.not, label %7, label %17

7:                                                ; preds = %3
  call void @llvm.lifetime.start.p0(i64 32, ptr nonnull %4) #7
  call void @llvm.lifetime.start.p0(i64 1, ptr nonnull %5) #7
  call void @_ZNSt7__cxx1112basic_stringIcSt11char_traitsIcESaIcEEC2EPKcRKS3_(ptr noundef nonnull align 8 dereferenceable(32) %4, ptr noundef nonnull @.str, ptr noundef nonnull align 1 dereferenceable(1) %5)
  invoke void @_ZN2cv5errorEiRKNSt7__cxx1112basic_stringIcSt11char_traitsIcESaIcEEEPKcS9_i(i32 noundef -215, ptr noundef nonnull align 8 dereferenceable(32) %4, ptr noundef nonnull @__func__._ZNK2cv21GraphicalCodeDetector11detectMultiERKNS_11_InputArrayERKNS_12_OutputArrayE, ptr noundef nonnull @.str.1, i32 noundef 29) #8
          to label %8 unwind label %9

8:                                                ; preds = %7
  unreachable

9:                                                ; preds = %7
  %10 = landingpad { ptr, i32 }
          cleanup
  %11 = load ptr, ptr %4, align 8, !tbaa !11
  %12 = getelementptr inbounds nuw i8, ptr %4, i64 16
  %13 = icmp eq ptr %11, %12
  br i1 %13, label %_ZNKSt7__cxx1112basic_stringIcSt11char_traitsIcESaIcEE11_M_is_localEv.exit.thread.i.i, label %_ZNKSt7__cxx1112basic_stringIcSt11char_traitsIcESaIcEE11_M_is_localEv.exit.i.i

_ZNKSt7__cxx1112basic_stringIcSt11char_traitsIcESaIcEE11_M_is_localEv.exit.thread.i.i: ; preds = %9
  %14 = getelementptr inbounds nuw i8, ptr %4, i64 8
  %15 = load i64, ptr %14, align 8, !tbaa !16
  %16 = icmp ult i64 %15, 16
  call void @llvm.assume(i1 %16)
  br label %_ZNSt7__cxx1112basic_stringIcSt11char_traitsIcESaIcEED2Ev.exit

_ZNKSt7__cxx1112basic_stringIcSt11char_traitsIcESaIcEE11_M_is_localEv.exit.i.i: ; preds = %9
  call void @_ZdlPv(ptr noundef %11) #9
  br label %_ZNSt7__cxx1112basic_stringIcSt11char_traitsIcESaIcEED2Ev.exit

_ZNSt7__cxx1112basic_stringIcSt11char_traitsIcESaIcEED2Ev.exit: ; preds = %_ZNKSt7__cxx1112basic_stringIcSt11char_traitsIcESaIcEE11_M_is_localEv.exit.i.i, %_ZNKSt7__cxx1112basic_stringIcSt11char_traitsIcESaIcEE11_M_is_localEv.exit.thread.i.i
  call void @llvm.lifetime.end.p0(i64 1, ptr nonnull %5) #7
  call void @llvm.lifetime.end.p0(i64 32, ptr nonnull %4) #7
  resume { ptr, i32 } %10

17:                                               ; preds = %3
  %18 = load ptr, ptr %6, align 8, !tbaa !17
  %19 = getelementptr inbounds nuw i8, ptr %18, i64 40
  %20 = load ptr, ptr %19, align 8
  %21 = tail call noundef zeroext i1 %20(ptr noundef nonnull align 8 dereferenceable(8) %6, ptr noundef nonnull align 8 dereferenceable(24) %1, ptr noundef nonnull align 8 dereferenceable(24) %2)
  ret i1 %21
}